; Function Attrs: mustprogress uwtable
define hidden noundef zeroext i1 @_ZN2cv10HdrDecoder10readHeaderEv(ptr noundef nonnull align 8 dereferenceable(408) initializes((400, 408)) %0) unnamed_addr #3 align 2 personality ptr @__gxx_personality_v0 {
  %2 = getelementptr inbounds nuw i8, ptr %0, i64 24
  %3 = load ptr, ptr %2, align 8, !tbaa !57
  %4 = tail call noalias ptr @fopen(ptr noundef %3, ptr noundef nonnull @.str.2)
  %5 = getelementptr inbounds nuw i8, ptr %0, i64 400
  store ptr %4, ptr %5, align 8, !tbaa !15
  %.not = icmp eq ptr %4, null
  br i1 %.not, label %17, label %6

6:                                                ; preds = %1
  %7 = getelementptr inbounds nuw i8, ptr %0, i64 8
  %8 = getelementptr inbounds nuw i8, ptr %0, i64 12
  %9 = tail call noundef i32 @_Z15RGBE_ReadHeaderP8_IO_FILEPiS1_P16rgbe_header_info(ptr noundef nonnull %4, ptr noundef nonnull %7, ptr noundef nonnull %8, ptr noundef null)
  %10 = load i32, ptr %7, align 8, !tbaa !63
  %11 = icmp slt i32 %10, 1
  %12 = load i32, ptr %8, align 4
  %13 = icmp slt i32 %12, 1
  %or.cond = select i1 %11, i1 true, i1 %13
  br i1 %or.cond, label %14, label %17

14:                                               ; preds = %6
  %15 = load ptr, ptr %5, align 8, !tbaa !15
  %16 = tail call i32 @fclose(ptr noundef %15)
  store ptr null, ptr %5, align 8, !tbaa !15
  br label %17

17:                                               ; preds = %6, %1, %14
  %.0 = phi i1 [ false, %14 ], [ false, %1 ], [ true, %6 ]
  ret i1 %.0
}